ccopy_reg
_reconstructor
p0
(csympy.matrices.dense
MutableDenseMatrix
p1
c__builtin__
object
p2
Ntp3
Rp4
(dp5
S'rows'
p6
I4
sS'_mat'
p7
(lp8
csympy.core.numbers
One
p9
(I1
tp10
Rp11
(dp12
bacsympy.core.numbers
Zero
p13
(I0
tp14
Rp15
(dp16
bag15
acsympy.core.numbers
Float
p17
((I0
S'0L'
p18
I0
I0
tp19
tp20
Rp21
(dp22
S'_prec'
p23
I53
sbag15
ag11
ag15
ag15
ag15
ag15
ag11
ag17
((I0
S'13645a1cac0831L'
p24
I-54
I53
tp25
tp26
Rp27
(dp28
g23
I53
sbag15
ag15
ag15
ag11
asS'cols'
p29
I4
sb.